target datalayout = "e-m:e-p270:32:32-p271:32:32-p272:64:64-i64:64-i128:128-f80:128-n8:16:32:64-S128"
target triple = "x86_64-unknown-linux-gnu"

%"class.icu_75::RuleBasedCollator" = type <{ %"class.icu_75::Collator", ptr, ptr, ptr, ptr, %"class.icu_75::Locale", i32, i8, [3 x i8] }>
%"class.icu_75::Collator" = type { %"class.icu_75::UObject" }
%"class.icu_75::UObject" = type { ptr }
%"class.icu_75::Locale" = type <{ %"class.icu_75::UObject", [12 x i8], [6 x i8], [4 x i8], [2 x i8], i32, [4 x i8], ptr, [157 x i8], [3 x i8], ptr, i8, [7 x i8] }>
%"class.icu_75::SharedObject" = type { %"class.icu_75::UObject", i32, %"struct.std::atomic", ptr }
%"struct.std::atomic" = type { %"struct.std::__atomic_base" }
%"struct.std::__atomic_base" = type { i32 }
%"struct.icu_75::CollationSettings" = type <{ %"class.icu_75::SharedObject", i32, i32, ptr, i32, [4 x i8], ptr, i32, [4 x i8], ptr, i32, i32, i32, [384 x i16], [4 x i8] }>

; Function Attrs: mustprogress uwtable
define void @_ZNK6icu_7517RuleBasedCollator19setFastLatinOptionsERNS_17CollationSettingsE(ptr noundef nonnull align 8 dereferenceable(272) %this, ptr noundef nonnull align 8 dereferenceable(852) %ownedSettings) #1 align 2 {
entry:
  %this.addr = alloca ptr, align 8
  %ownedSettings.addr = alloca ptr, align 8
  store ptr %this, ptr %this.addr, align 8
  store ptr %ownedSettings, ptr %ownedSettings.addr, align 8
  %this1 = load ptr, ptr %this.addr, align 8
  %data = getelementptr inbounds %"class.icu_75::RuleBasedCollator", ptr %this1, i32 0, i32 1
  %0 = load ptr, ptr %data, align 8
  %1 = load ptr, ptr %ownedSettings.addr, align 8
  %2 = load ptr, ptr %ownedSettings.addr, align 8
  %fastLatinPrimaries = getelementptr inbounds %"struct.icu_75::CollationSettings", ptr %2, i32 0, i32 13
  %arraydecay = getelementptr inbounds [384 x i16], ptr %fastLatinPrimaries, i64 0, i64 0
  %call = call noundef i32 @_ZN6icu_7518CollationFastLatin10getOptionsEPKNS_13CollationDataERKNS_17CollationSettingsEPti(ptr noundef %0, ptr noundef nonnull align 8 dereferenceable(852) %1, ptr noundef %arraydecay, i32 noundef 384)
  %3 = load ptr, ptr %ownedSettings.addr, align 8
  %fastLatinOptions = getelementptr inbounds %"struct.icu_75::CollationSettings", ptr %3, i32 0, i32 12
  store i32 %call, ptr %fastLatinOptions, align 8
  ret void
}