; Function Attrs: mustprogress uwtable
define void @_ZNK6icu_7517RuleBasedCollator19setFastLatinOptionsERNS_17CollationSettingsE(ptr nocapture noundef nonnull readonly align 8 dereferenceable(272) %this, ptr noundef nonnull align 8 dereferenceable(852) %ownedSettings) local_unnamed_addr #1 align 2 {
entry:
  %data = getelementptr inbounds i8, ptr %this, i64 8
  %0 = load ptr, ptr %data, align 8
  %fastLatinPrimaries = getelementptr inbounds i8, ptr %ownedSettings, i64 84
  %call = tail call noundef i32 @_ZN6icu_7518CollationFastLatin10getOptionsEPKNS_13CollationDataERKNS_17CollationSettingsEPti(ptr noundef %0, ptr noundef nonnull align 8 dereferenceable(852) %ownedSettings, ptr noundef nonnull %fastLatinPrimaries, i32 noundef 384)
  %fastLatinOptions = getelementptr inbounds i8, ptr %ownedSettings, i64 80
  store i32 %call, ptr %fastLatinOptions, align 8
  ret void
}